; Function Attrs: mustprogress uwtable
define internal void @_ZN32pxrInternal_v0_24__pxrReserved__12_GLOBAL__N_118_PrimvarDataSource8GetNamesEv(ptr dead_on_unwind noalias writable sret(%"class.std::vector.5") align 8 %0, ptr noundef nonnull readonly align 8 captures(none) dereferenceable(72) %1) unnamed_addr #0 align 2 {
  %3 = getelementptr inbounds nuw i8, ptr %1, i64 16
  %4 = load ptr, ptr %3, align 8
  %.not = icmp eq ptr %4, null
  br i1 %.not, label %5, label %6

5:                                                ; preds = %2
  tail call void @llvm.memset.p0.i64(ptr noundef nonnull align 8 dereferenceable(24) %0, i8 0, i64 24, i1 false)
  br label %10

6:                                                ; preds = %2
  %7 = load ptr, ptr %4, align 8
  %8 = getelementptr inbounds nuw i8, ptr %7, i64 16
  %9 = load ptr, ptr %8, align 8
  tail call void %9(ptr dead_on_unwind writable sret(%"class.std::vector.5") align 8 %0, ptr noundef nonnull align 8 dereferenceable(8) %4)
  br label %10

10:                                               ; preds = %6, %5
  ret void
}